target datalayout = "e-m:e-p270:32:32-p271:32:32-p272:64:64-i64:64-i128:128-f80:128-n8:16:32:64-S128"
target triple = "x86_64-pc-linux-gnu"

%struct.AVCodecContext = type { ptr, i32, i32, ptr, i32, i32, ptr, ptr, ptr, i64, i32, i32, ptr, i32, %struct.AVRational, %struct.AVRational, %struct.AVRational, i32, i32, i32, i32, i32, %struct.AVRational, i32, i32, i32, i32, i32, i32, i32, i32, i32, i32, i32, ptr, ptr, i32, float, float, float, float, float, float, float, float, float, i32, i32, i32, i32, i32, i32, i32, i32, i32, i32, i32, i32, ptr, ptr, ptr, i32, i32, i32, i32, i32, i32, i32, i32, i32, i32, %struct.AVChannelLayout, i32, i32, i32, i32, i32, i32, i32, i32, ptr, i32, i32, i32, float, float, i32, i32, i32, i32, i32, ptr, i64, i64, float, float, i32, i32, ptr, ptr, i32, i32, i32, i32, i32, ptr, ptr, ptr, ptr, i32, i32, [8 x i64], i32, i32, i32, i32, i32, i32, i32, ptr, ptr, i32, i32, i32, i32, i32, i32, i32, i32, i32, i32, ptr, ptr, i32, i32, ptr, ptr, ptr, ptr, i32, i32, i64, i32, i32, i64, ptr, i64, ptr, i32, ptr, i32 }
%struct.AVRational = type { i32, i32 }
%struct.AVChannelLayout = type { i32, i32, %union.anon.0, ptr }
%union.anon.0 = type { i64 }
%struct.IdcinContext = type { ptr, ptr, i32, [256 x [512 x %struct.hnode]], [256 x i32], [256 x i32] }
%struct.hnode = type { i32, i8, [2 x i32] }
%struct.AVPacket = type { ptr, i64, i64, ptr, i32, i32, i32, ptr, i32, i64, i64, ptr, ptr, %struct.AVRational }
%struct.AVFrame = type { [8 x ptr], [8 x i32], ptr, i32, i32, i32, i32, i32, %struct.AVRational, i64, i64, %struct.AVRational, i32, ptr, i32, i32, [8 x ptr], ptr, i32, ptr, i32, i32, i32, i32, i32, i32, i32, i64, ptr, i32, ptr, ptr, i64, i64, i64, i64, ptr, %struct.AVChannelLayout, i64 }

@.str.5 = private unnamed_addr constant [23 x i8] c"Huffman decode error.\0A\00", align 1

; Function Attrs: nounwind uwtable
define internal i32 @idcin_decode_vlcs(ptr noundef %0, ptr noundef %1) #1 {
  %3 = alloca i32, align 4
  %4 = alloca ptr, align 8
  %5 = alloca ptr, align 8
  %6 = alloca ptr, align 8
  %7 = alloca i64, align 8
  %8 = alloca i64, align 8
  %9 = alloca i32, align 4
  %10 = alloca i8, align 1
  %11 = alloca i32, align 4
  %12 = alloca i32, align 4
  %13 = alloca i32, align 4
  %14 = alloca i32, align 4
  store ptr %0, ptr %4, align 8, !tbaa !29
  store ptr %1, ptr %5, align 8, !tbaa !44
  call void @llvm.lifetime.start.p0(i64 8, ptr %6) #5
  call void @llvm.lifetime.start.p0(i64 8, ptr %7) #5
  call void @llvm.lifetime.start.p0(i64 8, ptr %8) #5
  call void @llvm.lifetime.start.p0(i64 4, ptr %9) #5
  call void @llvm.lifetime.start.p0(i64 1, ptr %10) #5
  store i8 0, ptr %10, align 1, !tbaa !38
  call void @llvm.lifetime.start.p0(i64 4, ptr %11) #5
  call void @llvm.lifetime.start.p0(i64 4, ptr %12) #5
  call void @llvm.lifetime.start.p0(i64 4, ptr %13) #5
  store i32 0, ptr %13, align 4, !tbaa !31
  store i32 0, ptr %11, align 4, !tbaa !31
  store i32 0, ptr %9, align 4, !tbaa !31
  store i64 0, ptr %8, align 8, !tbaa !59
  br label %15

15:                                               ; preds = %112, %2
  %16 = load i64, ptr %8, align 8, !tbaa !59
  %17 = load ptr, ptr %5, align 8, !tbaa !44
  %18 = getelementptr inbounds nuw %struct.AVFrame, ptr %17, i32 0, i32 1
  %19 = getelementptr inbounds [8 x i32], ptr %18, i64 0, i64 0
  %20 = load i32, ptr %19, align 8, !tbaa !31
  %21 = load ptr, ptr %4, align 8, !tbaa !29
  %22 = getelementptr inbounds nuw %struct.IdcinContext, ptr %21, i32 0, i32 0
  %23 = load ptr, ptr %22, align 8, !tbaa !32
  %24 = getelementptr inbounds nuw %struct.AVCodecContext, ptr %23, i32 0, i32 19
  %25 = load i32, ptr %24, align 4, !tbaa !60
  %26 = mul nsw i32 %20, %25
  %27 = sext i32 %26 to i64
  %28 = icmp slt i64 %16, %27
  br i1 %28, label %29, label %120

29:                                               ; preds = %15
  %30 = load i64, ptr %8, align 8, !tbaa !59
  store i64 %30, ptr %7, align 8, !tbaa !59
  br label %31

31:                                               ; preds = %108, %29
  %32 = load i64, ptr %7, align 8, !tbaa !59
  %33 = load i64, ptr %8, align 8, !tbaa !59
  %34 = load ptr, ptr %4, align 8, !tbaa !29
  %35 = getelementptr inbounds nuw %struct.IdcinContext, ptr %34, i32 0, i32 0
  %36 = load ptr, ptr %35, align 8, !tbaa !32
  %37 = getelementptr inbounds nuw %struct.AVCodecContext, ptr %36, i32 0, i32 18
  %38 = load i32, ptr %37, align 8, !tbaa !61
  %39 = sext i32 %38 to i64
  %40 = add nsw i64 %33, %39
  %41 = icmp slt i64 %32, %40
  br i1 %41, label %42, label %111

42:                                               ; preds = %31
  %43 = load ptr, ptr %4, align 8, !tbaa !29
  %44 = getelementptr inbounds nuw %struct.IdcinContext, ptr %43, i32 0, i32 4
  %45 = load i32, ptr %9, align 4, !tbaa !31
  %46 = sext i32 %45 to i64
  %47 = getelementptr inbounds [256 x i32], ptr %44, i64 0, i64 %46
  %48 = load i32, ptr %47, align 4, !tbaa !31
  store i32 %48, ptr %12, align 4, !tbaa !31
  %49 = load ptr, ptr %4, align 8, !tbaa !29
  %50 = getelementptr inbounds nuw %struct.IdcinContext, ptr %49, i32 0, i32 3
  %51 = load i32, ptr %9, align 4, !tbaa !31
  %52 = sext i32 %51 to i64
  %53 = getelementptr inbounds [256 x [512 x %struct.hnode]], ptr %50, i64 0, i64 %52
  %54 = getelementptr inbounds [512 x %struct.hnode], ptr %53, i64 0, i64 0
  store ptr %54, ptr %6, align 8, !tbaa !54
  br label %55

55:                                               ; preds = %80, %42
  %56 = load i32, ptr %12, align 4, !tbaa !31
  %57 = icmp sge i32 %56, 256
  br i1 %57, label %58, label %98

58:                                               ; preds = %55
  %59 = load i32, ptr %11, align 4, !tbaa !31
  %60 = icmp ne i32 %59, 0
  br i1 %60, label %80, label %61

61:                                               ; preds = %58
  %62 = load i32, ptr %13, align 4, !tbaa !31
  %63 = load ptr, ptr %4, align 8, !tbaa !29
  %64 = getelementptr inbounds nuw %struct.IdcinContext, ptr %63, i32 0, i32 2
  %65 = load i32, ptr %64, align 8, !tbaa !53
  %66 = icmp sge i32 %62, %65
  br i1 %66, label %67, label %71

67:                                               ; preds = %61
  %68 = load ptr, ptr %4, align 8, !tbaa !29
  %69 = getelementptr inbounds nuw %struct.IdcinContext, ptr %68, i32 0, i32 0
  %70 = load ptr, ptr %69, align 8, !tbaa !32
  call void (ptr, i32, ptr, ...) @av_log(ptr noundef %70, i32 noundef 16, ptr noundef @.str.5)
  store i32 -1, ptr %3, align 4
  store i32 1, ptr %14, align 4
  br label %121

71:                                               ; preds = %61
  store i32 8, ptr %11, align 4, !tbaa !31
  %72 = load ptr, ptr %4, align 8, !tbaa !29
  %73 = getelementptr inbounds nuw %struct.IdcinContext, ptr %72, i32 0, i32 1
  %74 = load ptr, ptr %73, align 8, !tbaa !52
  %75 = load i32, ptr %13, align 4, !tbaa !31
  %76 = add nsw i32 %75, 1
  store i32 %76, ptr %13, align 4, !tbaa !31
  %77 = sext i32 %75 to i64
  %78 = getelementptr inbounds i8, ptr %74, i64 %77
  %79 = load i8, ptr %78, align 1, !tbaa !38
  store i8 %79, ptr %10, align 1, !tbaa !38
  br label %80

80:                                               ; preds = %71, %58
  %81 = load ptr, ptr %6, align 8, !tbaa !54
  %82 = load i32, ptr %12, align 4, !tbaa !31
  %83 = sext i32 %82 to i64
  %84 = getelementptr inbounds %struct.hnode, ptr %81, i64 %83
  %85 = getelementptr inbounds nuw %struct.hnode, ptr %84, i32 0, i32 2
  %86 = load i8, ptr %10, align 1, !tbaa !38
  %87 = zext i8 %86 to i32
  %88 = and i32 %87, 1
  %89 = sext i32 %88 to i64
  %90 = getelementptr inbounds [2 x i32], ptr %85, i64 0, i64 %89
  %91 = load i32, ptr %90, align 4, !tbaa !31
  store i32 %91, ptr %12, align 4, !tbaa !31
  %92 = load i8, ptr %10, align 1, !tbaa !38
  %93 = zext i8 %92 to i32
  %94 = ashr i32 %93, 1
  %95 = trunc i32 %94 to i8
  store i8 %95, ptr %10, align 1, !tbaa !38
  %96 = load i32, ptr %11, align 4, !tbaa !31
  %97 = add nsw i32 %96, -1
  store i32 %97, ptr %11, align 4, !tbaa !31
  br label %55, !llvm.loop !62

98:                                               ; preds = %55
  %99 = load i32, ptr %12, align 4, !tbaa !31
  %100 = trunc i32 %99 to i8
  %101 = load ptr, ptr %5, align 8, !tbaa !44
  %102 = getelementptr inbounds nuw %struct.AVFrame, ptr %101, i32 0, i32 0
  %103 = getelementptr inbounds [8 x ptr], ptr %102, i64 0, i64 0
  %104 = load ptr, ptr %103, align 8, !tbaa !37
  %105 = load i64, ptr %7, align 8, !tbaa !59
  %106 = getelementptr inbounds i8, ptr %104, i64 %105
  store i8 %100, ptr %106, align 1, !tbaa !38
  %107 = load i32, ptr %12, align 4, !tbaa !31
  store i32 %107, ptr %9, align 4, !tbaa !31
  br label %108

108:                                              ; preds = %98
  %109 = load i64, ptr %7, align 8, !tbaa !59
  %110 = add nsw i64 %109, 1
  store i64 %110, ptr %7, align 8, !tbaa !59
  br label %31, !llvm.loop !63

111:                                              ; preds = %31
  br label %112

112:                                              ; preds = %111
  %113 = load ptr, ptr %5, align 8, !tbaa !44
  %114 = getelementptr inbounds nuw %struct.AVFrame, ptr %113, i32 0, i32 1
  %115 = getelementptr inbounds [8 x i32], ptr %114, i64 0, i64 0
  %116 = load i32, ptr %115, align 8, !tbaa !31
  %117 = sext i32 %116 to i64
  %118 = load i64, ptr %8, align 8, !tbaa !59
  %119 = add nsw i64 %118, %117
  store i64 %119, ptr %8, align 8, !tbaa !59
  br label %15, !llvm.loop !64

120:                                              ; preds = %15
  store i32 0, ptr %3, align 4
  store i32 1, ptr %14, align 4
  br label %121

121:                                              ; preds = %120, %67
  call void @llvm.lifetime.end.p0(i64 4, ptr %13) #5
  call void @llvm.lifetime.end.p0(i64 4, ptr %12) #5
  call void @llvm.lifetime.end.p0(i64 4, ptr %11) #5
  call void @llvm.lifetime.end.p0(i64 1, ptr %10) #5
  call void @llvm.lifetime.end.p0(i64 4, ptr %9) #5
  call void @llvm.lifetime.end.p0(i64 8, ptr %8) #5
  call void @llvm.lifetime.end.p0(i64 8, ptr %7) #5
  call void @llvm.lifetime.end.p0(i64 8, ptr %6) #5
  %122 = load i32, ptr %3, align 4
  ret i32 %122
}

; Function Attrs: nounwind uwtable
define internal i32 @idcin_decode_frame(ptr noundef %0, ptr noundef %1, ptr noundef %2, ptr noundef %3) #1 {
  %5 = alloca i32, align 4
  %6 = alloca ptr, align 8
  %7 = alloca ptr, align 8
  %8 = alloca ptr, align 8
  %9 = alloca ptr, align 8
  %10 = alloca ptr, align 8
  %11 = alloca i32, align 4
  %12 = alloca ptr, align 8
  %13 = alloca i32, align 4
  %14 = alloca i32, align 4
  store ptr %0, ptr %6, align 8, !tbaa !4
  store ptr %1, ptr %7, align 8, !tbaa !44
  store ptr %2, ptr %8, align 8, !tbaa !46
  store ptr %3, ptr %9, align 8, !tbaa !47
  call void @llvm.lifetime.start.p0(i64 8, ptr %10) #5
  %15 = load ptr, ptr %9, align 8, !tbaa !47
  %16 = getelementptr inbounds nuw %struct.AVPacket, ptr %15, i32 0, i32 3
  %17 = load ptr, ptr %16, align 8, !tbaa !49
  store ptr %17, ptr %10, align 8, !tbaa !37
  call void @llvm.lifetime.start.p0(i64 4, ptr %11) #5
  %18 = load ptr, ptr %9, align 8, !tbaa !47
  %19 = getelementptr inbounds nuw %struct.AVPacket, ptr %18, i32 0, i32 4
  %20 = load i32, ptr %19, align 8, !tbaa !51
  store i32 %20, ptr %11, align 4, !tbaa !31
  call void @llvm.lifetime.start.p0(i64 8, ptr %12) #5
  %21 = load ptr, ptr %6, align 8, !tbaa !4
  %22 = getelementptr inbounds nuw %struct.AVCodecContext, ptr %21, i32 0, i32 6
  %23 = load ptr, ptr %22, align 8, !tbaa !9
  store ptr %23, ptr %12, align 8, !tbaa !29
  call void @llvm.lifetime.start.p0(i64 4, ptr %13) #5
  %24 = load ptr, ptr %10, align 8, !tbaa !37
  %25 = load ptr, ptr %12, align 8, !tbaa !29
  %26 = getelementptr inbounds nuw %struct.IdcinContext, ptr %25, i32 0, i32 1
  store ptr %24, ptr %26, align 8, !tbaa !52
  %27 = load i32, ptr %11, align 4, !tbaa !31
  %28 = load ptr, ptr %12, align 8, !tbaa !29
  %29 = getelementptr inbounds nuw %struct.IdcinContext, ptr %28, i32 0, i32 2
  store i32 %27, ptr %29, align 8, !tbaa !53
  %30 = load ptr, ptr %6, align 8, !tbaa !4
  %31 = load ptr, ptr %7, align 8, !tbaa !44
  %32 = call i32 @ff_get_buffer(ptr noundef %30, ptr noundef %31, i32 noundef 0)
  store i32 %32, ptr %13, align 4, !tbaa !31
  %33 = icmp slt i32 %32, 0
  br i1 %33, label %34, label %36

34:                                               ; preds = %4
  %35 = load i32, ptr %13, align 4, !tbaa !31
  store i32 %35, ptr %5, align 4
  store i32 1, ptr %14, align 4
  br label %58

36:                                               ; preds = %4
  %37 = load ptr, ptr %12, align 8, !tbaa !29
  %38 = load ptr, ptr %7, align 8, !tbaa !44
  %39 = call i32 @idcin_decode_vlcs(ptr noundef %37, ptr noundef %38)
  %40 = icmp ne i32 %39, 0
  br i1 %40, label %41, label %42

41:                                               ; preds = %36
  store i32 -1094995529, ptr %5, align 4
  store i32 1, ptr %14, align 4
  br label %58

42:                                               ; preds = %36
  %43 = load ptr, ptr %12, align 8, !tbaa !29
  %44 = getelementptr inbounds nuw %struct.IdcinContext, ptr %43, i32 0, i32 5
  %45 = getelementptr inbounds [256 x i32], ptr %44, i64 0, i64 0
  %46 = load ptr, ptr %9, align 8, !tbaa !47
  %47 = load ptr, ptr %6, align 8, !tbaa !4
  %48 = call i32 @ff_copy_palette(ptr noundef %45, ptr noundef %46, ptr noundef %47)
  %49 = load ptr, ptr %7, align 8, !tbaa !44
  %50 = getelementptr inbounds nuw %struct.AVFrame, ptr %49, i32 0, i32 0
  %51 = getelementptr inbounds [8 x ptr], ptr %50, i64 0, i64 1
  %52 = load ptr, ptr %51, align 8, !tbaa !37
  %53 = load ptr, ptr %12, align 8, !tbaa !29
  %54 = getelementptr inbounds nuw %struct.IdcinContext, ptr %53, i32 0, i32 5
  %55 = getelementptr inbounds [256 x i32], ptr %54, i64 0, i64 0
  call void @llvm.memcpy.p0.p0.i64(ptr align 1 %52, ptr align 4 %55, i64 1024, i1 false)
  %56 = load ptr, ptr %8, align 8, !tbaa !46
  store i32 1, ptr %56, align 4, !tbaa !31
  %57 = load i32, ptr %11, align 4, !tbaa !31
  store i32 %57, ptr %5, align 4
  store i32 1, ptr %14, align 4
  br label %58

58:                                               ; preds = %42, %41, %34
  call void @llvm.lifetime.end.p0(i64 4, ptr %13) #5
  call void @llvm.lifetime.end.p0(i64 8, ptr %12) #5
  call void @llvm.lifetime.end.p0(i64 4, ptr %11) #5
  call void @llvm.lifetime.end.p0(i64 8, ptr %10) #5
  %59 = load i32, ptr %5, align 4
  ret i32 %59
}