; Function Attrs: nounwind uwtable
define internal i32 @idcin_decode_frame(ptr noundef %0, ptr noundef %1, ptr noundef writeonly captures(none) %2, ptr noundef %3) #1 {
  %5 = getelementptr inbounds nuw i8, ptr %3, i64 24
  %6 = load ptr, ptr %5, align 8, !tbaa !39
  %7 = getelementptr inbounds nuw i8, ptr %3, i64 32
  %8 = load i32, ptr %7, align 8, !tbaa !41
  %9 = getelementptr inbounds nuw i8, ptr %0, i64 32
  %10 = load ptr, ptr %9, align 8, !tbaa !4
  %11 = getelementptr inbounds nuw i8, ptr %10, i64 8
  store ptr %6, ptr %11, align 8, !tbaa !42
  %12 = getelementptr inbounds nuw i8, ptr %10, i64 16
  store i32 %8, ptr %12, align 8, !tbaa !43
  %13 = tail call i32 @ff_get_buffer(ptr noundef %0, ptr noundef %1, i32 noundef 0) #6
  %14 = icmp slt i32 %13, 0
  br i1 %14, label %74, label %15

15:                                               ; preds = %4
  %16 = getelementptr inbounds nuw i8, ptr %1, i64 64
  %17 = load i32, ptr %16, align 8, !tbaa !44
  %18 = load ptr, ptr %10, align 8, !tbaa !27
  %19 = getelementptr inbounds nuw i8, ptr %18, i64 116
  %20 = load i32, ptr %19, align 4, !tbaa !45
  %21 = mul nsw i32 %20, %17
  %22 = icmp sgt i32 %21, 0
  br i1 %22, label %.preheader.lr.ph.i, label %.loopexit

.preheader.lr.ph.i:                               ; preds = %15
  %23 = getelementptr inbounds nuw i8, ptr %10, i64 2097172
  %24 = getelementptr inbounds nuw i8, ptr %10, i64 20
  br label %.preheader.i

.preheader.i:                                     ; preds = %._crit_edge68.i, %.preheader.lr.ph.i
  %25 = phi ptr [ %18, %.preheader.lr.ph.i ], [ %61, %._crit_edge68.i ]
  %26 = phi i32 [ %17, %.preheader.lr.ph.i ], [ %62, %._crit_edge68.i ]
  %.077.i = phi i32 [ 0, %.preheader.lr.ph.i ], [ %.1.lcssa.i, %._crit_edge68.i ]
  %.03176.i = phi i32 [ 0, %.preheader.lr.ph.i ], [ %.132.lcssa.i, %._crit_edge68.i ]
  %.03575.i = phi i8 [ 0, %.preheader.lr.ph.i ], [ %.136.lcssa.i, %._crit_edge68.i ]
  %.03974.i = phi i32 [ 0, %.preheader.lr.ph.i ], [ %.140.lcssa.i, %._crit_edge68.i ]
  %.04173.i = phi i64 [ 0, %.preheader.lr.ph.i ], [ %64, %._crit_edge68.i ]
  %27 = getelementptr inbounds nuw i8, ptr %25, i64 112
  %28 = load i32, ptr %27, align 8, !tbaa !46
  %29 = icmp sgt i32 %28, 0
  br i1 %29, label %.lr.ph67.i, label %._crit_edge68.i

.lr.ph67.i:                                       ; preds = %.preheader.i, %._crit_edge.i
  %30 = phi ptr [ %55, %._crit_edge.i ], [ %25, %.preheader.i ]
  %.166.i = phi i32 [ %.2.lcssa.i, %._crit_edge.i ], [ %.077.i, %.preheader.i ]
  %.13265.i = phi i32 [ %.233.lcssa.i, %._crit_edge.i ], [ %.03176.i, %.preheader.i ]
  %.13664.i = phi i8 [ %.237.lcssa.i, %._crit_edge.i ], [ %.03575.i, %.preheader.i ]
  %.14063.i = phi i32 [ %.030.lcssa.i, %._crit_edge.i ], [ %.03974.i, %.preheader.i ]
  %.04262.i = phi i64 [ %54, %._crit_edge.i ], [ %.04173.i, %.preheader.i ]
  %31 = sext i32 %.14063.i to i64
  %32 = getelementptr inbounds [256 x i32], ptr %23, i64 0, i64 %31
  %33 = getelementptr inbounds [256 x [512 x %struct.hnode]], ptr %24, i64 0, i64 %31
  %.03054.i = load i32, ptr %32, align 4, !tbaa !44
  %34 = icmp sgt i32 %.03054.i, 255
  br i1 %34, label %.lr.ph.i, label %._crit_edge.i

.lr.ph.i:                                         ; preds = %.lr.ph67.i, %43
  %.03058.i = phi i32 [ %.030.i, %43 ], [ %.03054.i, %.lr.ph67.i ]
  %.257.i = phi i32 [ %.3.i, %43 ], [ %.166.i, %.lr.ph67.i ]
  %.23356.i = phi i32 [ %49, %43 ], [ %.13265.i, %.lr.ph67.i ]
  %.23755.i = phi i8 [ %48, %43 ], [ %.13664.i, %.lr.ph67.i ]
  %.not.i = icmp eq i32 %.23356.i, 0
  br i1 %.not.i, label %35, label %43

35:                                               ; preds = %.lr.ph.i
  %36 = load i32, ptr %12, align 8, !tbaa !43
  %.not44.i = icmp slt i32 %.257.i, %36
  br i1 %.not44.i, label %37, label %idcin_decode_vlcs.exit

37:                                               ; preds = %35
  %38 = load ptr, ptr %11, align 8, !tbaa !42
  %39 = add nsw i32 %.257.i, 1
  %40 = sext i32 %.257.i to i64
  %41 = getelementptr inbounds i8, ptr %38, i64 %40
  %42 = load i8, ptr %41, align 1, !tbaa !33
  br label %43

43:                                               ; preds = %37, %.lr.ph.i
  %.338.i = phi i8 [ %.23755.i, %.lr.ph.i ], [ %42, %37 ]
  %.334.i = phi i32 [ %.23356.i, %.lr.ph.i ], [ 8, %37 ]
  %.3.i = phi i32 [ %.257.i, %.lr.ph.i ], [ %39, %37 ]
  %44 = zext nneg i32 %.03058.i to i64
  %45 = and i8 %.338.i, 1
  %46 = zext nneg i8 %45 to i64
  %47 = getelementptr inbounds nuw %struct.hnode, ptr %33, i64 %44, i32 2, i64 %46
  %48 = lshr i8 %.338.i, 1
  %49 = add nsw i32 %.334.i, -1
  %.030.i = load i32, ptr %47, align 4, !tbaa !44
  %50 = icmp sgt i32 %.030.i, 255
  br i1 %50, label %.lr.ph.i, label %._crit_edge.i, !llvm.loop !47

._crit_edge.i:                                    ; preds = %43, %.lr.ph67.i
  %.237.lcssa.i = phi i8 [ %.13664.i, %.lr.ph67.i ], [ %48, %43 ]
  %.233.lcssa.i = phi i32 [ %.13265.i, %.lr.ph67.i ], [ %49, %43 ]
  %.2.lcssa.i = phi i32 [ %.166.i, %.lr.ph67.i ], [ %.3.i, %43 ]
  %.030.lcssa.i = phi i32 [ %.03054.i, %.lr.ph67.i ], [ %.030.i, %43 ]
  %51 = trunc i32 %.030.lcssa.i to i8
  %52 = load ptr, ptr %1, align 8, !tbaa !48
  %53 = getelementptr inbounds i8, ptr %52, i64 %.04262.i
  store i8 %51, ptr %53, align 1, !tbaa !33
  %54 = add nsw i64 %.04262.i, 1
  %55 = load ptr, ptr %10, align 8, !tbaa !27
  %56 = getelementptr inbounds nuw i8, ptr %55, i64 112
  %57 = load i32, ptr %56, align 8, !tbaa !46
  %58 = sext i32 %57 to i64
  %59 = add nsw i64 %.04173.i, %58
  %60 = icmp slt i64 %54, %59
  br i1 %60, label %.lr.ph67.i, label %._crit_edge68.loopexit.i, !llvm.loop !49

._crit_edge68.loopexit.i:                         ; preds = %._crit_edge.i
  %.pre.i = load i32, ptr %16, align 8, !tbaa !44
  br label %._crit_edge68.i

._crit_edge68.i:                                  ; preds = %._crit_edge68.loopexit.i, %.preheader.i
  %61 = phi ptr [ %25, %.preheader.i ], [ %55, %._crit_edge68.loopexit.i ]
  %62 = phi i32 [ %26, %.preheader.i ], [ %.pre.i, %._crit_edge68.loopexit.i ]
  %.140.lcssa.i = phi i32 [ %.03974.i, %.preheader.i ], [ %.030.lcssa.i, %._crit_edge68.loopexit.i ]
  %.136.lcssa.i = phi i8 [ %.03575.i, %.preheader.i ], [ %.237.lcssa.i, %._crit_edge68.loopexit.i ]
  %.132.lcssa.i = phi i32 [ %.03176.i, %.preheader.i ], [ %.233.lcssa.i, %._crit_edge68.loopexit.i ]
  %.1.lcssa.i = phi i32 [ %.077.i, %.preheader.i ], [ %.2.lcssa.i, %._crit_edge68.loopexit.i ]
  %63 = sext i32 %62 to i64
  %64 = add nsw i64 %.04173.i, %63
  %65 = getelementptr inbounds nuw i8, ptr %61, i64 116
  %66 = load i32, ptr %65, align 4, !tbaa !45
  %67 = mul nsw i32 %66, %62
  %68 = sext i32 %67 to i64
  %69 = icmp slt i64 %64, %68
  br i1 %69, label %.preheader.i, label %.loopexit, !llvm.loop !50

idcin_decode_vlcs.exit:                           ; preds = %35
  tail call void (ptr, i32, ptr, ...) @av_log(ptr noundef %30, i32 noundef 16, ptr noundef nonnull @.str.5) #6
  br label %74

.loopexit:                                        ; preds = %._crit_edge68.i, %15
  %70 = getelementptr inbounds nuw i8, ptr %10, i64 2098196
  %71 = tail call i32 @ff_copy_palette(ptr noundef nonnull %70, ptr noundef %3, ptr noundef %0) #6
  %72 = getelementptr inbounds nuw i8, ptr %1, i64 8
  %73 = load ptr, ptr %72, align 8, !tbaa !48
  tail call void @llvm.memcpy.p0.p0.i64(ptr noundef nonnull align 1 dereferenceable(1024) %73, ptr noundef nonnull align 4 dereferenceable(1024) %70, i64 1024, i1 false)
  store i32 1, ptr %2, align 4, !tbaa !44
  br label %74

74:                                               ; preds = %idcin_decode_vlcs.exit, %4, %.loopexit
  %.0 = phi i32 [ %8, %.loopexit ], [ %13, %4 ], [ -1094995529, %idcin_decode_vlcs.exit ]
  ret i32 %.0
}